(dp0
S'features'
p1
(dp2
cnumpy.core.multiarray
scalar
p3
(cnumpy
dtype
p4
(S'i8'
p5
I0
I1
tp6
Rp7
(I3
S'<'
p8
NNNI-1
I-1
I0
tp9
bS'\x00\x00\x00\x00\x00\x00\x00\x00'
p10
tp11
Rp12
(lp13
F0.6127387285232544
aF1.4054055213928223
aF-0.26293960213661194
aF0.1859327107667923
aF0.0039259339682757854
aF1.2455607652664185
aF1.7529670000076294
aF-0.03279707953333855
aF0.952832818031311
aF0.4273909032344818
asg3
(g7
S'\x01\x00\x00\x00\x00\x00\x00\x00'
p14
tp15
Rp16
(lp17
F-1.598872423171997
aF0.14153151214122772
aF-1.4726046323776245
aF-1.7087208032608032
aF-1.7602920532226562
aF2.107295274734497
aF1.0930778980255127
aF0.6843804121017456
aF0.22286103665828705
aF-0.4535611569881439
asg3
(g7
S'\x02\x00\x00\x00\x00\x00\x00\x00'
p18
tp19
Rp20
(lp21
F0.6739868521690369
aF1.4643402099609375
aF-0.3391932547092438
aF-0.0383576862514019
aF0.40793731808662415
aF1.4899582862854004
aF3.4372305870056152
aF-0.6740978956222534
aF2.035646677017212
aF-0.1548255831003189
asg3
(g7
S'\x03\x00\x00\x00\x00\x00\x00\x00'
p22
tp23
Rp24
(lp25
F0.9024308919906616
aF0.26082107424736023
aF-0.6601744890213013
aF-1.382262945175171
aF-0.7218998670578003
aF0.9226709008216858
aF0.9172061681747437
aF-1.7897226810455322
aF0.9332125186920166
aF-0.6132824420928955
asg3
(g7
S'\x04\x00\x00\x00\x00\x00\x00\x00'
p26
tp27
Rp28
(lp29
F0.47152990102767944
aF2.100586175918579
aF1.7187936305999756
aF-0.8745871782302856
aF0.1494617611169815
aF1.2846754789352417
aF1.2628545761108398
aF-1.5112429857254028
aF2.0893478393554688
aF1.9840762615203857
asg3
(g7
S'\x05\x00\x00\x00\x00\x00\x00\x00'
p30
tp31
Rp32
(lp33
F-0.4204815924167633
aF0.7365950345993042
aF-0.37804198265075684
aF-1.0680025815963745
aF-1.1790506839752197
aF0.900935709476471
aF1.8314908742904663
aF-1.1231956481933594
aF0.685319185256958
aF1.152571439743042
asg3
(g7
S'\x06\x00\x00\x00\x00\x00\x00\x00'
p34
tp35
Rp36
(lp37
F0.5297818183898926
aF1.028997778892517
aF0.8570977449417114
aF-0.22187542915344238
aF-1.0033292770385742
aF0.7482969760894775
aF1.764319658279419
aF-1.3337935209274292
aF-0.0009788040770217776
aF0.31630679965019226
asg3
(g7
S'\x07\x00\x00\x00\x00\x00\x00\x00'
p38
tp39
Rp40
(lp41
F0.9422464966773987
aF-0.5570583343505859
aF1.9239389896392822
aF-1.8406020402908325
aF-1.505935549736023
aF1.0671988725662231
aF4.405105113983154
aF-0.4274757206439972
aF1.5494989156723022
aF0.36185625195503235
asg3
(g7
S'\x08\x00\x00\x00\x00\x00\x00\x00'
p42
tp43
Rp44
(lp45
F0.8036119341850281
aF2.572650194168091
aF2.109255790710449
aF-0.3946472406387329
aF-0.1282147318124771
aF2.2596535682678223
aF-0.9069277048110962
aF-1.508539080619812
aF1.0088798999786377
aF0.005228877998888493
asg3
(g7
S'\t\x00\x00\x00\x00\x00\x00\x00'
p46
tp47
Rp48
(lp49
F-1.567936658859253
aF2.797929286956787
aF1.7064716815948486
aF0.1462150514125824
aF-0.5491735935211182
aF1.5746122598648071
aF1.418163537979126
aF-0.06680011749267578
aF2.077954053878784
aF-1.8027589321136475
asg3
(g7
S'\n\x00\x00\x00\x00\x00\x00\x00'
p50
tp51
Rp52
(lp53
F1.9104464054107666
aF-0.37364694476127625
aF0.27349865436553955
aF0.25261205434799194
aF-1.7890499830245972
aF1.8126273155212402
aF2.7151763439178467
aF-0.38727325201034546
aF-0.7225490808486938
aF-0.11634118109941483
asg3
(g7
S'\x0b\x00\x00\x00\x00\x00\x00\x00'
p54
tp55
Rp56
(lp57
F0.6156074404716492
aF1.4930638074874878
aF-0.15877355635166168
aF-0.19576814770698547
aF-1.544511079788208
aF2.128052234649658
aF0.2719769775867462
aF-2.1952741146087646
aF0.6372637152671814
aF1.9040322303771973
asg3
(g7
S'\x0c\x00\x00\x00\x00\x00\x00\x00'
p58
tp59
Rp60
(lp61
F0.1429542899131775
aF2.6681830883026123
aF1.1434978246688843
aF-0.5485702753067017
aF0.5238885283470154
aF2.2927770614624023
aF1.6335153579711914
aF0.24011892080307007
aF2.090466260910034
aF1.113264560699463
asg3
(g7
S'\r\x00\x00\x00\x00\x00\x00\x00'
p62
tp63
Rp64
(lp65
F1.4849454164505005
aF2.4342002868652344
aF1.6895140409469604
aF0.0029646307229995728
aF-0.22340837121009827
aF2.193096876144409
aF2.7565066814422607
aF-1.0887043476104736
aF-0.6928586363792419
aF0.9176874756813049
asg3
(g7
S'\x0e\x00\x00\x00\x00\x00\x00\x00'
p66
tp67
Rp68
(lp69
F0.5707621574401855
aF-0.06393440812826157
aF-0.24515727162361145
aF-1.5970112085342407
aF1.2163676023483276
aF1.8138850927352905
aF2.1503846645355225
aF-1.7325716018676758
aF1.32466721534729
aF-0.3747768700122833
asg3
(g7
S'\x0f\x00\x00\x00\x00\x00\x00\x00'
p70
tp71
Rp72
(lp73
F-0.052877482026815414
aF1.021862268447876
aF0.6192429661750793
aF-0.468809574842453
aF0.09395532310009003
aF1.1664083003997803
aF1.2601995468139648
aF-0.7226983308792114
aF0.6087450385093689
aF-0.3443690836429596
asg3
(g7
S'\x10\x00\x00\x00\x00\x00\x00\x00'
p74
tp75
Rp76
(lp77
F-0.6462704539299011
aF2.1099696159362793
aF0.15990766882896423
aF-0.5724655985832214
aF0.6513477563858032
aF0.25172603130340576
aF2.3961377143859863
aF-0.24209506809711456
aF0.5781248807907104
aF-0.8634984493255615
asg3
(g7
S'\x11\x00\x00\x00\x00\x00\x00\x00'
p78
tp79
Rp80
(lp81
F1.932633399963379
aF-0.0037434084806591272
aF-1.1224849224090576
aF-0.2759116590023041
aF-2.2621846199035645
aF0.3414324223995209
aF2.4765141010284424
aF-0.09250707924365997
aF-0.4325160086154938
aF0.74472576379776
asg3
(g7
S'\x12\x00\x00\x00\x00\x00\x00\x00'
p82
tp83
Rp84
(lp85
F1.3825997114181519
aF1.4834719896316528
aF2.884103536605835
aF0.1587090939283371
aF1.2250100374221802
aF0.23808638751506805
aF2.7853736877441406
aF-1.016084909439087
aF1.3265942335128784
aF1.3549425601959229
asg3
(g7
S'\x13\x00\x00\x00\x00\x00\x00\x00'
p86
tp87
Rp88
(lp89
F2.4498424530029297
aF3.014768362045288
aF1.739527940750122
aF0.3538506329059601
aF0.517098069190979
aF0.17348109185695648
aF1.6816601753234863
aF-0.3507612645626068
aF1.5498136281967163
aF-0.36943840980529785
asg3
(g7
S'\x14\x00\x00\x00\x00\x00\x00\x00'
p90
tp91
Rp92
(lp93
F2.3986830711364746
aF-0.38363003730773926
aF-0.05793779715895653
aF0.4594823718070984
aF-1.4686040878295898
aF2.469967842102051
aF3.198657751083374
aF0.1467973291873932
aF-0.42955103516578674
aF0.1130567267537117
asg3
(g7
S'\x15\x00\x00\x00\x00\x00\x00\x00'
p94
tp95
Rp96
(lp97
F0.2854955792427063
aF0.44970089197158813
aF1.2446280717849731
aF-1.059906244277954
aF-1.1729369163513184
aF1.1929478645324707
aF1.669132947921753
aF-1.3386160135269165
aF1.0278233289718628
aF0.589827835559845
asg3
(g7
S'\x16\x00\x00\x00\x00\x00\x00\x00'
p98
tp99
Rp100
(lp101
F1.510800838470459
aF1.1788387298583984
aF0.24456191062927246
aF-1.6925402879714966
aF-2.813476800918579
aF0.6870576739311218
aF3.6883575916290283
aF-1.8068251609802246
aF0.3908693492412567
aF-0.4308475852012634
asg3
(g7
S'\x17\x00\x00\x00\x00\x00\x00\x00'
p102
tp103
Rp104
(lp105
F0.9431699514389038
aF1.263277530670166
aF1.2869048118591309
aF0.8139327764511108
aF-1.7724484205245972
aF1.1879860162734985
aF4.1436686515808105
aF-0.09762231260538101
aF-0.5648972988128662
aF1.4783179759979248
asg3
(g7
S'\x18\x00\x00\x00\x00\x00\x00\x00'
p106
tp107
Rp108
(lp109
F0.35816916823387146
aF1.4732056856155396
aF0.0350906103849411
aF-0.41255611181259155
aF-2.045278549194336
aF0.9924442172050476
aF2.5869855880737305
aF-0.8900983929634094
aF0.8977950215339661
aF1.622393250465393
asg3
(g7
S'\x19\x00\x00\x00\x00\x00\x00\x00'
p110
tp111
Rp112
(lp113
F-0.31293150782585144
aF0.8683793544769287
aF-1.0468213558197021
aF0.5273231863975525
aF1.1560001373291016
aF-0.712138831615448
aF1.9757808446884155
aF-0.5957130789756775
aF3.7437615394592285
aF-0.8924521207809448
asg3
(g7
S'\x1a\x00\x00\x00\x00\x00\x00\x00'
p114
tp115
Rp116
(lp117
F-0.323808491230011
aF1.8822864294052124
aF-0.299556165933609
aF0.07251771539449692
aF-0.1962692141532898
aF1.4860624074935913
aF1.9477225542068481
aF0.12416786700487137
aF0.7158501148223877
aF-0.23073531687259674
asg3
(g7
S'\x1b\x00\x00\x00\x00\x00\x00\x00'
p118
tp119
Rp120
(lp121
F-0.9750688672065735
aF1.5357592105865479
aF1.3288826942443848
aF0.7804099917411804
aF1.8181443214416504
aF1.0561813116073608
aF3.2625644207000732
aF-2.6532092094421387
aF-1.0149904489517212
aF-1.5145245790481567
asg3
(g7
S'\x1c\x00\x00\x00\x00\x00\x00\x00'
p122
tp123
Rp124
(lp125
F0.6676349639892578
aF0.32148298621177673
aF0.8205096125602722
aF0.5238555669784546
aF-1.90031898021698
aF1.277058720588684
aF1.1766157150268555
aF-1.1519763469696045
aF1.1366764307022095
aF-0.6634183526039124
asg3
(g7
S'\x1d\x00\x00\x00\x00\x00\x00\x00'
p126
tp127
Rp128
(lp129
F1.9547405242919922
aF-0.251412957906723
aF-0.28985467553138733
aF-3.169402837753296
aF0.6104731559753418
aF2.4774959087371826
aF2.3447797298431396
aF-3.1930992603302
aF2.147284746170044
aF1.2366938591003418
asg3
(g7
S'\x1e\x00\x00\x00\x00\x00\x00\x00'
p130
tp131
Rp132
(lp133
F1.4257020950317383
aF1.508494257926941
aF2.4211387634277344
aF1.0287195444107056
aF-1.9955185651779175
aF1.3922287225723267
aF3.93363618850708
aF-2.1009371280670166
aF0.16496554017066956
aF0.7747036814689636
asg3
(g7
S'\x1f\x00\x00\x00\x00\x00\x00\x00'
p134
tp135
Rp136
(lp137
F0.6148531436920166
aF-0.3776008188724518
aF0.12830890715122223
aF-1.5394424200057983
aF0.20275147259235382
aF2.245972156524658
aF1.7632975578308105
aF-1.7997255325317383
aF0.45729905366897583
aF0.1899435967206955
asg3
(g7
S' \x00\x00\x00\x00\x00\x00\x00'
p138
tp139
Rp140
(lp141
F2.425400733947754
aF0.7315945625305176
aF1.6382112503051758
aF1.172560691833496
aF-0.888243556022644
aF1.1470493078231812
aF3.975360631942749
aF-1.4347851276397705
aF-1.154727578163147
aF-0.4875798225402832
asg3
(g7
S'!\x00\x00\x00\x00\x00\x00\x00'
p142
tp143
Rp144
(lp145
F0.16611085832118988
aF1.0136388540267944
aF1.0624996423721313
aF-3.167600631713867
aF0.44541504979133606
aF0.37825286388397217
aF2.8129281997680664
aF0.75188148021698
aF0.2098531723022461
aF0.8333166837692261
asg3
(g7
S'"\x00\x00\x00\x00\x00\x00\x00'
p146
tp147
Rp148
(lp149
F-1.1013705730438232
aF2.6707701683044434
aF1.758344054222107
aF-1.4770057201385498
aF-0.42311742901802063
aF2.82615065574646
aF-0.43549486994743347
aF-0.4384227395057678
aF0.4475824236869812
aF-0.2868528962135315
asg3
(g7
S'#\x00\x00\x00\x00\x00\x00\x00'
p150
tp151
Rp152
(lp153
F0.34093430638313293
aF1.9605507850646973
aF1.2693263292312622
aF-1.000924825668335
aF-0.28948312997817993
aF1.1263535022735596
aF2.337522268295288
aF0.7472078204154968
aF-1.1568794250488281
aF-1.221520185470581
asg3
(g7
S'$\x00\x00\x00\x00\x00\x00\x00'
p154
tp155
Rp156
(lp157
F1.636622428894043
aF0.6994433403015137
aF1.664711356163025
aF-0.38848960399627686
aF-0.7674058079719543
aF1.874908208847046
aF2.19706654548645
aF-0.6909035444259644
aF0.3691122829914093
aF0.46712079644203186
asg3
(g7
S'%\x00\x00\x00\x00\x00\x00\x00'
p158
tp159
Rp160
(lp161
F0.15770883858203888
aF1.248931646347046
aF0.9124798774719238
aF-0.3563782870769501
aF1.4429831504821777
aF2.308810234069824
aF1.2623679637908936
aF-1.8204292058944702
aF1.5150806903839111
aF-1.2268503904342651
asg3
(g7
S'&\x00\x00\x00\x00\x00\x00\x00'
p162
tp163
Rp164
(lp165
F0.6971036791801453
aF1.8355331420898438
aF1.2259256839752197
aF1.334594964981079
aF-0.5554745197296143
aF0.6643787622451782
aF1.974583625793457
aF-1.2663501501083374
aF0.2141125500202179
aF0.6802319288253784
asg3
(g7
S"'\x00\x00\x00\x00\x00\x00\x00"
p166
tp167
Rp168
(lp169
F-0.08758409321308136
aF-0.42826399207115173
aF0.448740154504776
aF-0.2856092154979706
aF-0.2614073157310486
aF2.7877349853515625
aF1.5089532136917114
aF-2.629627227783203
aF2.224186658859253
aF1.7909573316574097
asg3
(g7
S'(\x00\x00\x00\x00\x00\x00\x00'
p170
tp171
Rp172
(lp173
F-0.1446024775505066
aF-0.4443100392818451
aF1.2434238195419312
aF-1.8332260847091675
aF0.4146423637866974
aF0.860007107257843
aF1.223981499671936
aF-2.012748956680298
aF0.4478563070297241
aF0.6974654197692871
asg3
(g7
S')\x00\x00\x00\x00\x00\x00\x00'
p174
tp175
Rp176
(lp177
F0.96076500415802
aF0.9428575038909912
aF0.18391159176826477
aF0.14947791397571564
aF-1.24038827419281
aF0.40514904260635376
aF2.1990907192230225
aF-0.08479159325361252
aF1.1737451553344727
aF-0.22561563551425934
asg3
(g7
S'*\x00\x00\x00\x00\x00\x00\x00'
p178
tp179
Rp180
(lp181
F-0.41294315457344055
aF1.7369475364685059
aF-0.061935923993587494
aF-0.952195405960083
aF0.6730256676673889
aF1.8789188861846924
aF1.7723572254180908
aF-0.3573589622974396
aF0.6300363540649414
aF0.630232036113739
asg3
(g7
S'+\x00\x00\x00\x00\x00\x00\x00'
p182
tp183
Rp184
(lp185
F0.07443094253540039
aF1.0927923917770386
aF0.2968212962150574
aF-0.8704725503921509
aF-0.5793308019638062
aF0.19043505191802979
aF3.055791139602661
aF-2.3199596405029297
aF1.4809132814407349
aF-1.3397473096847534
asg3
(g7
S',\x00\x00\x00\x00\x00\x00\x00'
p186
tp187
Rp188
(lp189
F-1.1775288581848145
aF-0.38692280650138855
aF0.13670742511749268
aF-0.003719788044691086
aF-0.47120726108551025
aF1.3651763200759888
aF-0.0717197060585022
aF-1.69736647605896
aF1.9792128801345825
aF0.7532956600189209
asg3
(g7
S'-\x00\x00\x00\x00\x00\x00\x00'
p190
tp191
Rp192
(lp193
F0.12518185377120972
aF0.7383752465248108
aF0.04996282234787941
aF-0.5117958784103394
aF-0.7577957510948181
aF1.1179388761520386
aF1.9167978763580322
aF-1.285599708557129
aF0.42636585235595703
aF0.11039172857999802
asg3
(g7
S'.\x00\x00\x00\x00\x00\x00\x00'
p194
tp195
Rp196
(lp197
F2.154409885406494
aF-1.0108823776245117
aF-2.421013116836548
aF0.1269167959690094
aF-2.355684280395508
aF2.9949159622192383
aF2.5890138149261475
aF0.21897228062152863
aF0.12285172194242477
aF-0.3977300822734833
asg3
(g7
S'/\x00\x00\x00\x00\x00\x00\x00'
p198
tp199
Rp200
(lp201
F1.4476358890533447
aF0.8902572989463806
aF-1.1191798448562622
aF-0.9145779013633728
aF-0.14605005085468292
aF0.397182434797287
aF0.6415237188339233
aF-2.065387487411499
aF0.7808409333229065
aF0.23156966269016266
asg3
(g7
S'0\x00\x00\x00\x00\x00\x00\x00'
p202
tp203
Rp204
(lp205
F2.118934154510498
aF1.5318639278411865
aF2.4006564617156982
aF1.6037178039550781
aF0.5874939560890198
aF1.7499340772628784
aF1.5550841093063354
aF-0.2045251727104187
aF-1.7173771858215332
aF1.6504216194152832
asg3
(g7
S'1\x00\x00\x00\x00\x00\x00\x00'
p206
tp207
Rp208
(lp209
F1.4981626272201538
aF1.6995450258255005
aF1.7607553005218506
aF-0.9262901544570923
aF-0.1786583811044693
aF2.0511977672576904
aF4.4489827156066895
aF0.9148043394088745
aF0.563501238822937
aF0.12380950897932053
asg3
(g7
S'2\x00\x00\x00\x00\x00\x00\x00'
p210
tp211
Rp212
(lp213
F0.6469898223876953
aF1.2044906616210938
aF2.487903356552124
aF-0.28388112783432007
aF1.1817452907562256
aF0.4886234700679779
aF3.130927085876465
aF-0.652409017086029
aF-0.7260929942131042
aF0.2327616661787033
asg3
(g7
S'3\x00\x00\x00\x00\x00\x00\x00'
p214
tp215
Rp216
(lp217
F1.297858476638794
aF3.4383530616760254
aF1.919974446296692
aF-1.0987858772277832
aF-1.46396803855896
aF0.8946982026100159
aF0.9711860418319702
aF-1.744989037513733
aF0.2532349228858948
aF2.3497209548950195
asg3
(g7
S'4\x00\x00\x00\x00\x00\x00\x00'
p218
tp219
Rp220
(lp221
F1.0247927904129028
aF1.8477771282196045
aF1.6022768020629883
aF-2.599684715270996
aF-0.27853697538375854
aF2.9544358253479004
aF1.8102624416351318
aF-3.877537250518799
aF1.817150354385376
aF-2.030629873275757
asg3
(g7
S'5\x00\x00\x00\x00\x00\x00\x00'
p222
tp223
Rp224
(lp225
F2.620999813079834
aF2.254394769668579
aF1.7302616834640503
aF-2.8585195541381836
aF2.278036594390869
aF0.007843844592571259
aF1.68093740940094
aF-2.1843345165252686
aF2.2208094596862793
aF0.9837095737457275
asg3
(g7
S'6\x00\x00\x00\x00\x00\x00\x00'
p226
tp227
Rp228
(lp229
F0.48682650923728943
aF0.8485348224639893
aF-0.839882493019104
aF-1.9665515422821045
aF-1.1333284378051758
aF0.3389061391353607
aF2.1391568183898926
aF-0.5615077614784241
aF-0.6007470488548279
aF1.510604977607727
asg3
(g7
S'7\x00\x00\x00\x00\x00\x00\x00'
p230
tp231
Rp232
(lp233
F2.747694730758667
aF1.3586405515670776
aF1.2949658632278442
aF0.4334128499031067
aF-0.45783528685569763
aF2.6861515045166016
aF3.9629061222076416
aF0.6151832342147827
aF-0.1223001629114151
aF0.18020190298557281
asg3
(g7
S'8\x00\x00\x00\x00\x00\x00\x00'
p234
tp235
Rp236
(lp237
F-0.6291621327400208
aF0.5595539212226868
aF1.044897198677063
aF-0.5087853074073792
aF-0.8371383547782898
aF0.2912219166755676
aF3.0622260570526123
aF-0.025783948600292206
aF-0.6696269512176514
aF0.9171260595321655
asg3
(g7
S'9\x00\x00\x00\x00\x00\x00\x00'
p238
tp239
Rp240
(lp241
F1.1849201917648315
aF2.493896484375
aF0.9528712034225464
aF-0.582312285900116
aF-0.04260469600558281
aF0.7420427799224854
aF1.3505241870880127
aF-0.4062613248825073
aF1.0253336429595947
aF1.391756534576416
asg3
(g7
S':\x00\x00\x00\x00\x00\x00\x00'
p242
tp243
Rp244
(lp245
F1.5529011487960815
aF-0.06342191994190216
aF-0.0799172967672348
aF-2.2537214756011963
aF0.6166815161705017
aF1.187995433807373
aF1.3615800142288208
aF-0.4212753474712372
aF1.7226877212524414
aF0.7622858881950378
asg3
(g7
S';\x00\x00\x00\x00\x00\x00\x00'
p246
tp247
Rp248
(lp249
F0.6460753679275513
aF1.5479950904846191
aF-0.22667302191257477
aF-1.7549329996109009
aF-1.2582699060440063
aF0.5962660312652588
aF1.6491634845733643
aF-3.3611202239990234
aF1.0766485929489136
aF1.003833293914795
asg3
(g7
S'<\x00\x00\x00\x00\x00\x00\x00'
p250
tp251
Rp252
(lp253
F0.164521262049675
aF-0.2044515460729599
aF0.31764453649520874
aF-2.3017024993896484
aF-0.8628088235855103
aF2.4891624450683594
aF1.267667531967163
aF-0.005093132611364126
aF1.842013955116272
aF0.3318956792354584
asg3
(g7
S'=\x00\x00\x00\x00\x00\x00\x00'
p254
tp255
Rp256
(lp257
F0.06392879784107208
aF0.3035126030445099
aF0.16174107789993286
aF-0.6511906385421753
aF0.9060861468315125
aF0.7921991944313049
aF2.0195789337158203
aF-1.1316275596618652
aF1.4180124998092651
aF0.2070341259241104
asg3
(g7
S'>\x00\x00\x00\x00\x00\x00\x00'
p258
tp259
Rp260
(lp261
F1.1083308458328247
aF-0.44212618470191956
aF0.7258121371269226
aF-3.0140483379364014
aF-0.5913315415382385
aF1.2920838594436646
aF2.9585728645324707
aF-2.9812920093536377
aF0.8680599331855774
aF-2.087941884994507
asg3
(g7
S'?\x00\x00\x00\x00\x00\x00\x00'
p262
tp263
Rp264
(lp265
F-0.013206373900175095
aF1.5777336359024048
aF-2.1108458042144775
aF-0.49214935302734375
aF-0.015338951721787453
aF1.699777603149414
aF1.8163204193115234
aF-2.9935061931610107
aF0.48369863629341125
aF-2.740753173828125
asg3
(g7
S'@\x00\x00\x00\x00\x00\x00\x00'
p266
tp267
Rp268
(lp269
F-1.4940731525421143
aF1.0717850923538208
aF1.5501545667648315
aF0.32822921872138977
aF-0.09264037758111954
aF2.9021761417388916
aF2.7136342525482178
aF-0.19672977924346924
aF-0.9692989587783813
aF-0.7287405729293823
asg3
(g7
S'A\x00\x00\x00\x00\x00\x00\x00'
p270
tp271
Rp272
(lp273
F1.5802744626998901
aF-0.06757351756095886
aF2.0385584831237793
aF-0.5851472020149231
aF0.30341026186943054
aF1.9026654958724976
aF1.1838582754135132
aF-0.9880320429801941
aF-2.2064974308013916
aF-0.06388001888990402
asg3
(g7
S'B\x00\x00\x00\x00\x00\x00\x00'
p274
tp275
Rp276
(lp277
F0.30716460943222046
aF1.1884957551956177
aF2.6534528732299805
aF-0.7602081894874573
aF1.1829944849014282
aF0.7921327948570251
aF1.686335802078247
aF-0.22216641902923584
aF1.4535011053085327
aF-0.233147993683815
asg3
(g7
S'C\x00\x00\x00\x00\x00\x00\x00'
p278
tp279
Rp280
(lp281
F-0.03077744133770466
aF-0.3910197913646698
aF-0.8304281234741211
aF-1.7858047485351562
aF0.16418695449829102
aF2.5478732585906982
aF2.05147385597229
aF-1.2848715782165527
aF1.2364650964736938
aF-0.733543336391449
asg3
(g7
S'D\x00\x00\x00\x00\x00\x00\x00'
p282
tp283
Rp284
(lp285
F1.1194522380828857
aF0.9914555549621582
aF2.161067485809326
aF0.49800601601600647
aF-2.0704965591430664
aF0.41220271587371826
aF2.906925916671753
aF-0.4581875503063202
aF0.5088120698928833
aF0.013132697902619839
asg3
(g7
S'E\x00\x00\x00\x00\x00\x00\x00'
p286
tp287
Rp288
(lp289
F1.0202698707580566
aF2.1241772174835205
aF0.9195025563240051
aF-0.3470498025417328
aF-0.39125433564186096
aF-0.0735316351056099
aF1.5732078552246094
aF-4.348818778991699
aF-0.31719493865966797
aF-0.7764120101928711
asg3
(g7
S'F\x00\x00\x00\x00\x00\x00\x00'
p290
tp291
Rp292
(lp293
F1.624363660812378
aF-0.7550311088562012
aF1.412814736366272
aF-2.0400702953338623
aF-0.30926042795181274
aF0.7502052783966064
aF1.7640571594238281
aF-1.5791066884994507
aF0.5772561430931091
aF-1.4497169256210327
asg3
(g7
S'G\x00\x00\x00\x00\x00\x00\x00'
p294
tp295
Rp296
(lp297
F0.9230988025665283
aF1.5266931056976318
aF1.7570520639419556
aF-0.1131262332201004
aF0.5284348130226135
aF-0.28468626737594604
aF1.3032338619232178
aF-0.8767497539520264
aF1.6592274904251099
aF-0.9354407787322998
asg3
(g7
S'H\x00\x00\x00\x00\x00\x00\x00'
p298
tp299
Rp300
(lp301
F-0.4337998628616333
aF1.7012324333190918
aF1.0768046379089355
aF1.1558709144592285
aF-0.22687780857086182
aF0.9983991384506226
aF1.253959059715271
aF-2.0253777503967285
aF-0.11793145537376404
aF0.4867750108242035
asg3
(g7
S'I\x00\x00\x00\x00\x00\x00\x00'
p302
tp303
Rp304
(lp305
F1.2060943841934204
aF0.7082323431968689
aF0.1330897957086563
aF-1.4588031768798828
aF-1.0206862688064575
aF0.5207208395004272
aF2.7960073947906494
aF-0.4343411326408386
aF-1.1017651557922363
aF0.8665425181388855
asg3
(g7
S'J\x00\x00\x00\x00\x00\x00\x00'
p306
tp307
Rp308
(lp309
F1.3169217109680176
aF-1.5686839818954468
aF-0.6991032361984253
aF0.020948180928826332
aF-0.5617094039916992
aF-0.8583149909973145
aF4.606534957885742
aF-0.5079210996627808
aF1.0201464891433716
aF0.5722237229347229
asg3
(g7
S'K\x00\x00\x00\x00\x00\x00\x00'
p310
tp311
Rp312
(lp313
F1.2094464302062988
aF0.9283565282821655
aF2.3457303047180176
aF-0.385792076587677
aF0.40629255771636963
aF0.7792072296142578
aF1.6010581254959106
aF-0.8427172303199768
aF0.7998413443565369
aF1.3217782974243164
asg3
(g7
S'L\x00\x00\x00\x00\x00\x00\x00'
p314
tp315
Rp316
(lp317
F-0.274098664522171
aF0.878652811050415
aF0.022176669910550117
aF-0.7432698607444763
aF-0.39880135655403137
aF3.216946601867676
aF1.1712125539779663
aF-2.2006771564483643
aF0.1250491440296173
aF0.6184592247009277
asg3
(g7
S'M\x00\x00\x00\x00\x00\x00\x00'
p318
tp319
Rp320
(lp321
F0.5160741806030273
aF2.3863143920898438
aF0.5608075857162476
aF-2.7505762577056885
aF-0.8596296310424805
aF0.4581180512905121
aF2.2544219493865967
aF-2.544687271118164
aF0.2295028567314148
aF-0.25110989809036255
asg3
(g7
S'N\x00\x00\x00\x00\x00\x00\x00'
p322
tp323
Rp324
(lp325
F0.9237902164459229
aF0.5553621649742126
aF0.7238068580627441
aF-0.45300692319869995
aF0.250611811876297
aF0.1519935429096222
aF1.327007532119751
aF-0.6087408065795898
aF0.3787344694137573
aF-0.38640207052230835
asg3
(g7
S'O\x00\x00\x00\x00\x00\x00\x00'
p326
tp327
Rp328
(lp329
F0.3510357737541199
aF2.8803231716156006
aF1.6950480937957764
aF1.1396679878234863
aF0.061546988785266876
aF1.7647477388381958
aF2.0252845287323
aF-2.155057907104492
aF-0.5762125253677368
aF-0.23305629193782806
asg3
(g7
S'P\x00\x00\x00\x00\x00\x00\x00'
p330
tp331
Rp332
(lp333
F0.04514376074075699
aF-0.17401251196861267
aF1.8872255086898804
aF1.3470001220703125
aF-1.5053387880325317
aF-0.28563207387924194
aF1.9605128765106201
aF-0.6142622828483582
aF0.2134741097688675
aF2.242156744003296
asg3
(g7
S'Q\x00\x00\x00\x00\x00\x00\x00'
p334
tp335
Rp336
(lp337
F-1.018404483795166
aF2.079953193664551
aF1.0376944541931152
aF2.254728317260742
aF0.2025899589061737
aF0.17194603383541107
aF3.3020856380462646
aF-0.4830019772052765
aF0.6810873746871948
aF1.1794538497924805
asg3
(g7
S'R\x00\x00\x00\x00\x00\x00\x00'
p338
tp339
Rp340
(lp341
F0.31501007080078125
aF1.6108956336975098
aF-0.21814760565757751
aF0.7985605001449585
aF-0.3990907371044159
aF1.579229712486267
aF2.45157790184021
aF0.5710899829864502
aF0.19562776386737823
aF0.6381991505622864
asg3
(g7
S'S\x00\x00\x00\x00\x00\x00\x00'
p342
tp343
Rp344
(lp345
F1.4931899309158325
aF1.9471192359924316
aF3.0595669746398926
aF0.51091468334198
aF1.167959451675415
aF-0.32029879093170166
aF1.3186181783676147
aF-2.3363301753997803
aF2.3871476650238037
aF-0.6771396994590759
asg3
(g7
S'T\x00\x00\x00\x00\x00\x00\x00'
p346
tp347
Rp348
(lp349
F0.44163641333580017
aF1.1466530561447144
aF-0.4757896065711975
aF-1.2592238187789917
aF-0.08491551876068115
aF1.9262667894363403
aF1.596545934677124
aF-0.5709486603736877
aF0.9551762342453003
aF-0.04123154655098915
asg3
(g7
S'U\x00\x00\x00\x00\x00\x00\x00'
p350
tp351
Rp352
(lp353
F0.6049875020980835
aF1.5235035419464111
aF-0.8498059511184692
aF-2.3151419162750244
aF1.0022090673446655
aF1.7815414667129517
aF2.636133909225464
aF-3.9506747722625732
aF0.808167576789856
aF-0.5426710247993469
asg3
(g7
S'V\x00\x00\x00\x00\x00\x00\x00'
p354
tp355
Rp356
(lp357
F0.24293124675750732
aF0.4076444208621979
aF0.5936452746391296
aF-0.7114884853363037
aF-0.4682072699069977
aF0.4522245228290558
aF1.7088083028793335
aF-0.8764888644218445
aF0.6587740778923035
aF0.500971257686615
asg3
(g7
S'W\x00\x00\x00\x00\x00\x00\x00'
p358
tp359
Rp360
(lp361
F1.7466233968734741
aF0.562781810760498
aF0.38178983330726624
aF0.09927118569612503
aF0.2692164480686188
aF1.3226711750030518
aF4.017688274383545
aF-1.6378796100616455
aF-0.13173118233680725
aF1.4615261554718018
asg3
(g7
S'X\x00\x00\x00\x00\x00\x00\x00'
p362
tp363
Rp364
(lp365
F0.3754928708076477
aF1.2225568294525146
aF1.1091222763061523
aF-0.9376915693283081
aF-2.4852237701416016
aF1.835409164428711
aF2.2901413440704346
aF-2.3627874851226807
aF2.0919113159179688
aF0.9315776824951172
asg3
(g7
S'Y\x00\x00\x00\x00\x00\x00\x00'
p366
tp367
Rp368
(lp369
F0.4257925748825073
aF1.4152939319610596
aF0.49026769399642944
aF-0.7134421467781067
aF0.599562406539917
aF1.5847969055175781
aF0.30880942940711975
aF-1.6793066263198853
aF3.1434617042541504
aF-0.07708606868982315
asg3
(g7
S'Z\x00\x00\x00\x00\x00\x00\x00'
p370
tp371
Rp372
(lp373
F2.417152166366577
aF3.678293466567993
aF2.049636125564575
aF-1.003521203994751
aF-1.166622281074524
aF1.8020509481430054
aF3.7794268131256104
aF-0.5858166217803955
aF-2.96273136138916
aF0.48408716917037964
asg3
(g7
S'[\x00\x00\x00\x00\x00\x00\x00'
p374
tp375
Rp376
(lp377
F-1.0953704118728638
aF0.9960046410560608
aF-0.4985262453556061
aF-1.1892472505569458
aF-0.41369950771331787
aF1.6801395416259766
aF2.1538028717041016
aF0.620970606803894
aF1.3152356147766113
aF-0.282839298248291
asg3
(g7
S'\\\x00\x00\x00\x00\x00\x00\x00'
p378
tp379
Rp380
(lp381
F1.2242951393127441
aF1.9710252285003662
aF-0.014777202159166336
aF0.9506099820137024
aF0.5409260392189026
aF2.3878066539764404
aF2.85034441947937
aF-1.170419692993164
aF3.205348253250122
aF-0.9235838055610657
asg3
(g7
S']\x00\x00\x00\x00\x00\x00\x00'
p382
tp383
Rp384
(lp385
F2.122044324874878
aF2.3878726959228516
aF0.7478297352790833
aF0.43850114941596985
aF2.26719331741333
aF0.9203265309333801
aF1.994316577911377
aF-2.60552716255188
aF1.6910761594772339
aF-0.8394920229911804
asg3
(g7
S'^\x00\x00\x00\x00\x00\x00\x00'
p386
tp387
Rp388
(lp389
F1.5564314126968384
aF2.866016387939453
aF0.405837744474411
aF-2.1201820373535156
aF-0.5221445560455322
aF-1.5758267641067505
aF3.0874297618865967
aF-0.2769947052001953
aF-1.4469666481018066
aF0.20805992186069489
asg3
(g7
S'_\x00\x00\x00\x00\x00\x00\x00'
p390
tp391
Rp392
(lp393
F0.89048171043396
aF1.0771256685256958
aF-0.3219207227230072
aF-1.3631082773208618
aF0.5813130140304565
aF1.9837779998779297
aF3.060513734817505
aF-0.9273723363876343
aF0.5781189799308777
aF-0.24290697276592255
asg3
(g7
S'`\x00\x00\x00\x00\x00\x00\x00'
p394
tp395
Rp396
(lp397
F1.7949076890945435
aF2.4366533756256104
aF-0.28367188572883606
aF-1.5258769989013672
aF-1.2734028100967407
aF2.099475622177124
aF0.9491438865661621
aF-1.8555068969726562
aF-0.6028965711593628
aF-2.1854636669158936
asg3
(g7
S'a\x00\x00\x00\x00\x00\x00\x00'
p398
tp399
Rp400
(lp401
F1.502220630645752
aF0.880656898021698
aF0.9221767783164978
aF0.1540496051311493
aF0.530184805393219
aF0.5371925234794617
aF1.1434234380722046
aF-1.2650139331817627
aF1.1266307830810547
aF0.6271453499794006
asg3
(g7
S'b\x00\x00\x00\x00\x00\x00\x00'
p402
tp403
Rp404
(lp405
F-1.663987398147583
aF0.014536095783114433
aF-1.1824842691421509
aF-1.9647130966186523
aF-0.8002268075942993
aF0.42911800742149353
aF1.7731859683990479
aF-0.6911084055900574
aF-0.4409060776233673
aF1.4727201461791992
asg3
(g7
S'c\x00\x00\x00\x00\x00\x00\x00'
p406
tp407
Rp408
(lp409
F-0.11523410677909851
aF0.38957470655441284
aF0.22814394533634186
aF-0.22516876459121704
aF-0.3009963035583496
aF1.396669864654541
aF0.9871336817741394
aF-0.9380017518997192
aF0.6871753931045532
aF0.6300128698348999
ass.