(dp0
S'features'
p1
(dp2
cnumpy.core.multiarray
scalar
p3
(cnumpy
dtype
p4
(S'i8'
p5
I0
I1
tp6
Rp7
(I3
S'<'
p8
NNNI-1
I-1
I0
tp9
bS'\x00\x00\x00\x00\x00\x00\x00\x00'
p10
tp11
Rp12
(lp13
F-0.485835999250412
aF0.590859591960907
aF-0.504391074180603
aF0.09044500440359116
aF-0.24650104343891144
aF-0.10351397097110748
aF0.4297158718109131
aF-0.0025540171191096306
aF0.5902289152145386
aF-0.13587017357349396
asg3
(g7
S'\x01\x00\x00\x00\x00\x00\x00\x00'
p14
tp15
Rp16
(lp17
F-0.16863787174224854
aF0.02283039689064026
aF0.3677777945995331
aF-0.123357392847538
aF-0.7056239247322083
aF-0.21747295558452606
aF0.37660250067710876
aF-0.4005153477191925
aF0.5295600295066833
aF-0.13249517977237701
asg3
(g7
S'\x02\x00\x00\x00\x00\x00\x00\x00'
p18
tp19
Rp20
(lp21
F0.22821582853794098
aF0.6870384216308594
aF0.407875120639801
aF0.05897247791290283
aF0.5443381071090698
aF0.492801308631897
aF-0.48781242966651917
aF-0.31526750326156616
aF0.4439185857772827
aF-0.48626697063446045
asg3
(g7
S'\x03\x00\x00\x00\x00\x00\x00\x00'
p22
tp23
Rp24
(lp25
F0.07218298316001892
aF0.22328293323516846
aF0.38419458270072937
aF-0.14913766086101532
aF-0.4774959087371826
aF0.48543834686279297
aF-0.02330803871154785
aF-0.3286745846271515
aF-0.07305712252855301
aF0.5386313199996948
asg3
(g7
S'\x04\x00\x00\x00\x00\x00\x00\x00'
p26
tp27
Rp28
(lp29
F0.1699092835187912
aF-0.3894403576850891
aF0.4736334979534149
aF-0.704750120639801
aF-0.28609558939933777
aF0.07662532478570938
aF0.12903277575969696
aF-0.0911194309592247
aF0.4210204482078552
aF-0.08810528367757797
asg3
(g7
S'\x05\x00\x00\x00\x00\x00\x00\x00'
p30
tp31
Rp32
(lp33
F-0.05047542229294777
aF-0.02485889196395874
aF0.5833689570426941
aF-0.04843264818191528
aF-0.035727862268686295
aF0.5131911039352417
aF0.5036543011665344
aF0.5492216944694519
aF-0.05186975374817848
aF0.07228674739599228
asg3
(g7
S'\x06\x00\x00\x00\x00\x00\x00\x00'
p34
tp35
Rp36
(lp37
F-0.15599359571933746
aF-0.41013848781585693
aF-0.32452479004859924
aF-0.056830186396837234
aF0.11983776837587357
aF-0.3809233605861664
aF0.8454769253730774
aF-0.18672849237918854
aF0.5795660614967346
aF-0.504633367061615
asg3
(g7
S'\x07\x00\x00\x00\x00\x00\x00\x00'
p38
tp39
Rp40
(lp41
F-0.1791369765996933
aF-0.22539617121219635
aF-0.12281819432973862
aF-0.10800204426050186
aF0.440324604511261
aF0.5829172730445862
aF0.3429040014743805
aF-0.401044100522995
aF-0.13392584025859833
aF0.055340252816677094
asg3
(g7
S'\x08\x00\x00\x00\x00\x00\x00\x00'
p42
tp43
Rp44
(lp45
F0.1204453706741333
aF0.17250411212444305
aF-0.18219424784183502
aF-0.8025445342063904
aF0.6170123219490051
aF0.5427825450897217
aF0.008814475499093533
aF-0.1940571516752243
aF0.18308298289775848
aF-0.15420830249786377
asg3
(g7
S'\t\x00\x00\x00\x00\x00\x00\x00'
p46
tp47
Rp48
(lp49
F0.07157810032367706
aF-0.3942078649997711
aF0.08549783378839493
aF-0.06488904356956482
aF0.16405169665813446
aF0.12050846219062805
aF0.9793548583984375
aF-0.07506687939167023
aF-0.1643119603395462
aF-0.4493357837200165
asg3
(g7
S'\n\x00\x00\x00\x00\x00\x00\x00'
p50
tp51
Rp52
(lp53
F-0.14643360674381256
aF0.7020951509475708
aF-0.4152635633945465
aF-0.005807023961097002
aF-0.14962734282016754
aF0.453083336353302
aF0.2146948277950287
aF0.4751662611961365
aF0.7252312302589417
aF0.3625694215297699
asg3
(g7
S'\x0b\x00\x00\x00\x00\x00\x00\x00'
p54
tp55
Rp56
(lp57
F0.46202534437179565
aF0.33538663387298584
aF0.6399484872817993
aF0.7611246109008789
aF0.40015077590942383
aF-0.27768296003341675
aF0.33034512400627136
aF-0.6776513457298279
aF-0.15140458941459656
aF0.04679270461201668
asg3
(g7
S'\x0c\x00\x00\x00\x00\x00\x00\x00'
p58
tp59
Rp60
(lp61
F-0.7771759629249573
aF0.5138205885887146
aF0.5111124515533447
aF-0.35405433177948
aF0.16961884498596191
aF-0.03688711300492287
aF0.8219708800315857
aF0.42996668815612793
aF-0.28577497601509094
aF-0.4310236871242523
asg3
(g7
S'\r\x00\x00\x00\x00\x00\x00\x00'
p62
tp63
Rp64
(lp65
F-0.0669330507516861
aF0.051121488213539124
aF-0.08851063251495361
aF0.31538325548171997
aF0.48225507140159607
aF-0.11236127465963364
aF0.5507249236106873
aF-0.6978388428688049
aF0.08548233658075333
aF0.3258822560310364
asg3
(g7
S'\x0e\x00\x00\x00\x00\x00\x00\x00'
p66
tp67
Rp68
(lp69
F0.3495127260684967
aF0.18946495652198792
aF-0.4936232566833496
aF-0.3963273763656616
aF0.011249304749071598
aF0.2679120600223541
aF0.03404863178730011
aF-0.5107024908065796
aF0.2817983031272888
aF-0.3496153652667999
asg3
(g7
S'\x0f\x00\x00\x00\x00\x00\x00\x00'
p70
tp71
Rp72
(lp73
F-0.530958890914917
aF-0.28796541690826416
aF-0.4793148338794708
aF0.26689034700393677
aF-0.6103313565254211
aF0.8309804201126099
aF0.2763262391090393
aF-0.19104550778865814
aF-0.12691035866737366
aF0.0506557822227478
asg3
(g7
S'\x10\x00\x00\x00\x00\x00\x00\x00'
p74
tp75
Rp76
(lp77
F0.1821402609348297
aF0.648129940032959
aF-0.4509301781654358
aF-0.6776665449142456
aF-0.2783927023410797
aF-0.15853731334209442
aF0.19466032087802887
aF-0.5248420834541321
aF-0.3661264479160309
aF0.6490032076835632
asg3
(g7
S'\x11\x00\x00\x00\x00\x00\x00\x00'
p78
tp79
Rp80
(lp81
F0.9550406336784363
aF0.07216810435056686
aF-0.44665831327438354
aF0.09662669897079468
aF-0.38402989506721497
aF-0.07587852329015732
aF0.5850006937980652
aF0.21332210302352905
aF-0.3988587260246277
aF0.007830710150301456
asg3
(g7
S'\x12\x00\x00\x00\x00\x00\x00\x00'
p82
tp83
Rp84
(lp85
F-0.4953499734401703
aF-0.025584671646356583
aF0.137472003698349
aF0.61741703748703
aF-0.48522451519966125
aF0.5524035692214966
aF-0.0167141892015934
aF-0.5174321532249451
aF0.48122358322143555
aF0.45229804515838623
asg3
(g7
S'\x13\x00\x00\x00\x00\x00\x00\x00'
p86
tp87
Rp88
(lp89
F-0.2866041362285614
aF0.4479524791240692
aF-0.342960923910141
aF-0.523749589920044
aF0.359011709690094
aF-0.05347989872097969
aF0.39434361457824707
aF-0.23305489122867584
aF-0.5740801095962524
aF0.3938685357570648
asg3
(g7
S'\x14\x00\x00\x00\x00\x00\x00\x00'
p90
tp91
Rp92
(lp93
F0.18757805228233337
aF0.40116679668426514
aF0.001513794413767755
aF-0.38126400113105774
aF-0.5342406034469604
aF-0.3240818977355957
aF0.33396273851394653
aF-0.24655871093273163
aF0.2110225111246109
aF-0.0647740364074707
asg3
(g7
S'\x15\x00\x00\x00\x00\x00\x00\x00'
p94
tp95
Rp96
(lp97
F0.4726178050041199
aF-0.33352649211883545
aF-0.15264655649662018
aF-0.04361063614487648
aF0.5528879761695862
aF-0.1939271241426468
aF0.3885378837585449
aF-0.534147322177887
aF0.3778429627418518
aF0.5721678733825684
asg3
(g7
S'\x16\x00\x00\x00\x00\x00\x00\x00'
p98
tp99
Rp100
(lp101
F0.36414140462875366
aF-0.49154341220855713
aF0.17208757996559143
aF0.06111206114292145
aF-0.8612678050994873
aF0.20247937738895416
aF0.6475951075553894
aF-0.05238436162471771
aF0.3882129490375519
aF-0.14603179693222046
asg3
(g7
S'\x17\x00\x00\x00\x00\x00\x00\x00'
p102
tp103
Rp104
(lp105
F0.3338734209537506
aF-0.17079785466194153
aF0.6222061514854431
aF0.003368582809343934
aF0.06741955131292343
aF0.5257659554481506
aF0.5583167672157288
aF0.1444624811410904
aF-0.6448507905006409
aF0.002540402812883258
asg3
(g7
S'\x18\x00\x00\x00\x00\x00\x00\x00'
p106
tp107
Rp108
(lp109
F-0.32268422842025757
aF0.6487953066825867
aF0.22719591856002808
aF0.0657125860452652
aF-0.9285087585449219
aF0.2627239525318146
aF0.032431408762931824
aF-0.7124761343002319
aF-0.3707663118839264
aF-0.3632422685623169
asg3
(g7
S'\x19\x00\x00\x00\x00\x00\x00\x00'
p110
tp111
Rp112
(lp113
F-0.31772691011428833
aF0.156546950340271
aF0.2596680819988251
aF-0.6137608885765076
aF-0.19643248617649078
aF0.3423349857330322
aF0.21471326053142548
aF0.5036685466766357
aF0.31334424018859863
aF-0.045981988310813904
asg3
(g7
S'\x1a\x00\x00\x00\x00\x00\x00\x00'
p114
tp115
Rp116
(lp117
F-0.19979891180992126
aF0.2723895311355591
aF0.4047296345233917
aF-0.47011053562164307
aF-0.8546875715255737
aF-0.5546092391014099
aF0.577033519744873
aF-0.2682497501373291
aF0.03187676519155502
aF0.9100291728973389
asg3
(g7
S'\x1b\x00\x00\x00\x00\x00\x00\x00'
p118
tp119
Rp120
(lp121
F0.11386719346046448
aF0.10306776314973831
aF0.6703123450279236
aF-0.15193454921245575
aF-0.04894917830824852
aF-0.16344785690307617
aF0.4163234233856201
aF0.20992612838745117
aF0.29643553495407104
aF0.44986796379089355
asg3
(g7
S'\x1c\x00\x00\x00\x00\x00\x00\x00'
p122
tp123
Rp124
(lp125
F-0.1748805195093155
aF0.7414376735687256
aF-0.42852866649627686
aF0.4453005790710449
aF0.1966080218553543
aF0.21437186002731323
aF0.5167310237884521
aF0.4075288772583008
aF0.6656516194343567
aF0.4711795449256897
asg3
(g7
S'\x1d\x00\x00\x00\x00\x00\x00\x00'
p126
tp127
Rp128
(lp129
F0.6131387948989868
aF0.2553686499595642
aF-0.21539485454559326
aF0.4535678029060364
aF-0.3656630516052246
aF0.37835797667503357
aF0.4307400584220886
aF0.1173839122056961
aF0.08017943799495697
aF-0.08999637514352798
ass.